; Function Attrs: null_pointer_is_valid sspstrong uwtable
define internal range(i32 0, 3) i32 @match_wide_case(ptr noundef captures(none) %0, ptr noundef readonly captures(none) %1, ptr noundef %2, ptr noundef readonly captures(none) %3) #1 {
  %5 = alloca i32, align 4
  %6 = alloca ptr, align 8
  %7 = alloca i8, align 1
  %8 = load ptr, ptr %3, align 8
  %9 = getelementptr inbounds nuw i8, ptr %3, i64 8
  %10 = load i64, ptr %9, align 8
  %11 = getelementptr inbounds nuw i8, ptr %3, i64 16
  %12 = load ptr, ptr %11, align 8
  call void @llvm.lifetime.start.p0(i64 1, ptr nonnull %7) #23
  call void @llvm.lifetime.start.p0(i64 4, ptr nonnull %5) #23
  call void @llvm.lifetime.start.p0(i64 8, ptr nonnull %6) #23
  %13 = getelementptr inbounds nuw i8, ptr %0, i64 224
  %14 = load ptr, ptr %13, align 8
  %15 = getelementptr inbounds nuw i8, ptr %1, i64 24
  %16 = load i64, ptr %15, align 8
  %17 = call zeroext i1 @wtap_seek_read(ptr noundef %14, i64 noundef %16, ptr noundef %2, ptr noundef nonnull %5, ptr noundef nonnull %6)
  br i1 %17, label %22, label %cf_read_record.exit

cf_read_record.exit:                              ; preds = %4
  %18 = getelementptr inbounds nuw i8, ptr %0, i64 16
  %19 = load ptr, ptr %18, align 8
  %20 = load i32, ptr %5, align 4
  %21 = load ptr, ptr %6, align 8
  call void @report_cfile_read_failure(ptr noundef %19, i32 noundef %20, ptr noundef %21)
  call void @llvm.lifetime.end.p0(i64 8, ptr nonnull %6) #23
  call void @llvm.lifetime.end.p0(i64 4, ptr nonnull %5) #23
  br label %.loopexit

22:                                               ; preds = %4
  call void @llvm.lifetime.end.p0(i64 8, ptr nonnull %6) #23
  call void @llvm.lifetime.end.p0(i64 4, ptr nonnull %5) #23
  %23 = getelementptr inbounds nuw i8, ptr %1, i64 12
  %24 = load i32, ptr %23, align 4
  %25 = getelementptr inbounds nuw i8, ptr %2, i64 280
  %.val = load ptr, ptr %25, align 8
  %26 = getelementptr i8, ptr %2, i64 296
  %.val59 = load i64, ptr %26, align 8
  %27 = getelementptr i8, ptr %.val, i64 %.val59
  %28 = zext i32 %24 to i64
  %29 = getelementptr i8, ptr %27, i64 %28
  %30 = getelementptr inbounds nuw i8, ptr %0, i64 188
  %31 = load i32, ptr %30, align 4
  %.not = icmp eq i32 %31, 0
  %32 = getelementptr inbounds nuw i8, ptr %0, i64 184
  %33 = load i32, ptr %32, align 8
  %.not56 = icmp eq i32 %33, 0
  %or.cond78 = select i1 %.not, i1 %.not56, i1 false
  %34 = add i32 %33, 1
  %35 = zext i32 %34 to i64
  %.050.idx = select i1 %or.cond78, i64 0, i64 %35
  %.050 = getelementptr i8, ptr %27, i64 %.050.idx
  %36 = icmp ult ptr %.050, %29
  br i1 %36, label %.lr.ph68, label %.loopexit

.lr.ph68:                                         ; preds = %22
  %37 = ptrtoint ptr %29 to i64
  br label %38

38:                                               ; preds = %.lr.ph68, %._crit_edge
  %.166 = phi ptr [ %.050, %.lr.ph68 ], [ %70, %._crit_edge ]
  %39 = ptrtoint ptr %.166 to i64
  %40 = sub i64 %37, %39
  %41 = call ptr @ws_mempbrk_exec(ptr noundef %.166, i64 noundef %40, ptr noundef %12, ptr noundef nonnull %7)
  %42 = icmp eq ptr %41, null
  br i1 %42, label %.loopexit, label %.preheader

.preheader:                                       ; preds = %38
  %43 = icmp ult ptr %41, %29
  br i1 %43, label %.lr.ph, label %._crit_edge

.lr.ph:                                           ; preds = %.preheader, %64
  %44 = phi ptr [ %68, %64 ], [ %41, %.preheader ]
  %.062 = phi i64 [ %51, %64 ], [ 0, %.preheader ]
  %.04761 = phi i32 [ %66, %64 ], [ 0, %.preheader ]
  %45 = load i8, ptr %44, align 1
  %46 = call signext i8 @g_ascii_toupper(i8 noundef signext %45) #28
  store i8 %46, ptr %7, align 1
  %47 = getelementptr i8, ptr %8, i64 %.062
  %48 = load i8, ptr %47, align 1
  %49 = icmp eq i8 %46, %48
  br i1 %49, label %50, label %._crit_edge

50:                                               ; preds = %.lr.ph
  %51 = add i64 %.062, 1
  %52 = icmp eq i64 %51, %10
  br i1 %52, label %53, label %60

53:                                               ; preds = %50
  %54 = ptrtoint ptr %41 to i64
  %55 = ptrtoint ptr %27 to i64
  %56 = sub i64 %54, %55
  %57 = trunc i64 %56 to i32
  %58 = getelementptr inbounds nuw i8, ptr %0, i64 184
  store i32 %57, ptr %58, align 8
  %59 = or disjoint i32 %.04761, 1
  store i32 %59, ptr %30, align 4
  br label %.loopexit

60:                                               ; preds = %50
  %61 = or disjoint i32 %.04761, 1
  %62 = zext i32 %61 to i64
  %63 = getelementptr i8, ptr %41, i64 %62
  %.not57 = icmp ult ptr %63, %29
  br i1 %.not57, label %64, label %._crit_edge

64:                                               ; preds = %60
  %65 = load i8, ptr %63, align 1
  %.not58 = icmp eq i8 %65, 0
  %66 = add i32 %.04761, 2
  %67 = zext i32 %66 to i64
  %68 = getelementptr i8, ptr %41, i64 %67
  %69 = icmp ult ptr %68, %29
  %or.cond = select i1 %.not58, i1 %69, i1 false
  br i1 %or.cond, label %.lr.ph, label %._crit_edge, !llvm.loop !38

._crit_edge:                                      ; preds = %.lr.ph, %60, %64, %.preheader
  %70 = getelementptr i8, ptr %41, i64 1
  %71 = icmp ult ptr %70, %29
  br i1 %71, label %38, label %.loopexit, !llvm.loop !39

.loopexit:                                        ; preds = %._crit_edge, %38, %22, %cf_read_record.exit, %53
  %.048 = phi i32 [ 2, %cf_read_record.exit ], [ 1, %53 ], [ 0, %22 ], [ 0, %38 ], [ 0, %._crit_edge ]
  call void @llvm.lifetime.end.p0(i64 1, ptr nonnull %7) #23
  ret i32 %.048
}